target datalayout = "e-m:e-p270:32:32-p271:32:32-p272:64:64-i64:64-i128:128-f80:128-n8:16:32:64-S128"
target triple = "x86_64-pc-linux-gnu"

%struct.nstime_t = type { i64, i32 }

@hf_gryphon_resp_time = internal global i32 0, align 4

; Function Attrs: null_pointer_is_valid sspstrong uwtable
define internal i32 @resp_time(ptr noundef %0, i32 noundef %1, ptr noundef %2) #0 {
  %4 = alloca ptr, align 8
  %5 = alloca i32, align 4
  %6 = alloca ptr, align 8
  %7 = alloca i64, align 8
  %8 = alloca %struct.nstime_t, align 8
  store ptr %0, ptr %4, align 8
  store i32 %1, ptr %5, align 4
  store ptr %2, ptr %6, align 8
  call void @llvm.lifetime.start.p0(i64 8, ptr %7) #7
  call void @llvm.lifetime.start.p0(i64 16, ptr %8) #7
  %9 = load ptr, ptr %4, align 8
  %10 = load i32, ptr %5, align 4
  %11 = call i64 @tvb_get_ntoh64(ptr noundef %9, i32 noundef %10)
  store i64 %11, ptr %7, align 8
  %12 = load i64, ptr %7, align 8
  %13 = udiv i64 %12, 100000
  %14 = getelementptr inbounds nuw %struct.nstime_t, ptr %8, i32 0, i32 0
  store i64 %13, ptr %14, align 8
  %15 = load i64, ptr %7, align 8
  %16 = urem i64 %15, 100000
  %17 = mul i64 %16, 1000
  %18 = trunc i64 %17 to i32
  %19 = getelementptr inbounds nuw %struct.nstime_t, ptr %8, i32 0, i32 1
  store i32 %18, ptr %19, align 8
  %20 = load ptr, ptr %6, align 8
  %21 = load i32, ptr @hf_gryphon_resp_time, align 4
  %22 = load ptr, ptr %4, align 8
  %23 = load i32, ptr %5, align 4
  %24 = call ptr @proto_tree_add_time(ptr noundef %20, i32 noundef %21, ptr noundef %22, i32 noundef %23, i32 noundef 8, ptr noundef %8)
  %25 = load i32, ptr %5, align 4
  %26 = add i32 %25, 8
  store i32 %26, ptr %5, align 4
  %27 = load i32, ptr %5, align 4
  call void @llvm.lifetime.end.p0(i64 16, ptr %8) #7
  call void @llvm.lifetime.end.p0(i64 8, ptr %7) #7
  ret i32 %27
}