; Function Attrs: null_pointer_is_valid sspstrong uwtable
define internal fastcc range(i32 20, 25) i32 @resp_time(ptr noundef %0, i32 noundef range(i32 12, 17) %1, ptr noundef %2) unnamed_addr #0 {
  %4 = alloca %struct.nstime_t, align 8
  call void @llvm.lifetime.start.p0(i64 16, ptr nonnull %4) #5
  %5 = tail call i64 @tvb_get_ntoh64(ptr noundef %0, i32 noundef %1)
  %6 = udiv i64 %5, 100000
  store i64 %6, ptr %4, align 8
  %7 = urem i64 %5, 100000
  %8 = trunc nuw nsw i64 %7 to i32
  %9 = mul nuw nsw i32 %8, 1000
  %10 = getelementptr inbounds nuw i8, ptr %4, i64 8
  store i32 %9, ptr %10, align 8
  %11 = load i32, ptr @hf_gryphon_resp_time, align 4
  %12 = call ptr @proto_tree_add_time(ptr noundef %2, i32 noundef %11, ptr noundef %0, i32 noundef %1, i32 noundef 8, ptr noundef nonnull %4)
  %13 = add nuw nsw i32 %1, 8
  call void @llvm.lifetime.end.p0(i64 16, ptr nonnull %4) #5
  ret i32 %13
}